; Function Attrs: mustprogress uwtable
define void @_ZN3gmx24CommandLineModuleManager9addModuleESt10unique_ptrINS_18ICommandLineModuleESt14default_deleteIS2_EE(ptr nocapture noundef nonnull readonly align 8 dereferenceable(8) %0, ptr nocapture noundef %1) local_unnamed_addr #0 align 2 personality ptr @__gxx_personality_v0 {
  %3 = alloca %"class.std::unique_ptr.40", align 8
  %4 = load ptr, ptr %0, align 8
  %5 = load i64, ptr %1, align 8
  store i64 %5, ptr %3, align 8
  store ptr null, ptr %1, align 8
  invoke void @_ZN3gmx24CommandLineModuleManager4Impl9addModuleESt10unique_ptrINS_18ICommandLineModuleESt14default_deleteIS3_EE(ptr noundef nonnull align 8 dereferenceable(129) %4, ptr noundef nonnull %3)
          to label %6 unwind label %11

6:                                                ; preds = %2
  %7 = load ptr, ptr %3, align 8
  %.not.i = icmp eq ptr %7, null
  br i1 %.not.i, label %_ZNSt10unique_ptrIN3gmx18ICommandLineModuleESt14default_deleteIS1_EED2Ev.exit, label %_ZNKSt14default_deleteIN3gmx18ICommandLineModuleEEclEPS1_.exit.i

_ZNKSt14default_deleteIN3gmx18ICommandLineModuleEEclEPS1_.exit.i: ; preds = %6
  %8 = load ptr, ptr %7, align 8
  %9 = getelementptr inbounds i8, ptr %8, i64 8
  %10 = load ptr, ptr %9, align 8
  tail call void %10(ptr noundef nonnull align 8 dereferenceable(8) %7) #21
  br label %_ZNSt10unique_ptrIN3gmx18ICommandLineModuleESt14default_deleteIS1_EED2Ev.exit

_ZNSt10unique_ptrIN3gmx18ICommandLineModuleESt14default_deleteIS1_EED2Ev.exit: ; preds = %6, %_ZNKSt14default_deleteIN3gmx18ICommandLineModuleEEclEPS1_.exit.i
  ret void

11:                                               ; preds = %2
  %12 = landingpad { ptr, i32 }
          cleanup
  %13 = load ptr, ptr %3, align 8
  %.not.i2 = icmp eq ptr %13, null
  br i1 %.not.i2, label %_ZNSt10unique_ptrIN3gmx18ICommandLineModuleESt14default_deleteIS1_EED2Ev.exit4, label %_ZNKSt14default_deleteIN3gmx18ICommandLineModuleEEclEPS1_.exit.i3

_ZNKSt14default_deleteIN3gmx18ICommandLineModuleEEclEPS1_.exit.i3: ; preds = %11
  %14 = load ptr, ptr %13, align 8
  %15 = getelementptr inbounds i8, ptr %14, i64 8
  %16 = load ptr, ptr %15, align 8
  tail call void %16(ptr noundef nonnull align 8 dereferenceable(8) %13) #21
  br label %_ZNSt10unique_ptrIN3gmx18ICommandLineModuleESt14default_deleteIS1_EED2Ev.exit4

_ZNSt10unique_ptrIN3gmx18ICommandLineModuleESt14default_deleteIS1_EED2Ev.exit4: ; preds = %11, %_ZNKSt14default_deleteIN3gmx18ICommandLineModuleEEclEPS1_.exit.i3
  resume { ptr, i32 } %12
}